target datalayout = "e-m:e-p270:32:32-p271:32:32-p272:64:64-i64:64-i128:128-f80:128-n8:16:32:64-S128"
target triple = "x86_64-pc-linux-gnu"

%struct.RBasic = type { i64, i64 }

; Function Attrs: inlinehint nounwind sspstrong willreturn memory(read) uwtable
define internal i64 @RB_FL_TEST_RAW(i64 noundef %0, i64 noundef %1) #11 {
  %3 = alloca i64, align 8
  %4 = alloca i64, align 8
  store i64 %0, ptr %3, align 8, !tbaa !22
  store i64 %1, ptr %4, align 8, !tbaa !22
  %5 = load i64, ptr %3, align 8, !tbaa !22
  %6 = inttoptr i64 %5 to ptr
  %7 = getelementptr inbounds nuw %struct.RBasic, ptr %6, i32 0, i32 0
  %8 = load i64, ptr %7, align 8, !tbaa !364
  %9 = load i64, ptr %4, align 8, !tbaa !22
  %10 = and i64 %8, %9
  ret i64 %10
}

; Function Attrs: nounwind sspstrong uwtable
define internal i64 @rb_thread_variable_p(i64 noundef %0, i64 noundef %1) #0 {
  %3 = alloca i64, align 8
  %4 = alloca i64, align 8
  %5 = alloca i64, align 8
  %6 = alloca i64, align 8
  %7 = alloca i64, align 8
  %8 = alloca i32, align 4
  store i64 %0, ptr %4, align 8, !tbaa !22
  store i64 %1, ptr %5, align 8, !tbaa !22
  call void @llvm.lifetime.start.p0(i64 8, ptr %6) #16
  call void @llvm.lifetime.start.p0(i64 8, ptr %7) #16
  %9 = load i64, ptr %5, align 8, !tbaa !22
  %10 = call i64 @rb_to_symbol(i64 noundef %9)
  store i64 %10, ptr %7, align 8, !tbaa !22
  %11 = load i64, ptr %4, align 8, !tbaa !22
  %12 = call i64 @RB_FL_TEST_RAW(i64 noundef %11, i64 noundef 33554432) #38
  %13 = icmp ne i64 %12, 0
  %14 = xor i1 %13, true
  %15 = xor i1 %14, true
  %16 = xor i1 %15, true
  %17 = zext i1 %16 to i32
  %18 = sext i32 %17 to i64
  %19 = call i64 @llvm.expect.i64(i64 %18, i64 1)
  %20 = icmp ne i64 %19, 0
  br i1 %20, label %21, label %22

21:                                               ; preds = %2
  store i64 0, ptr %3, align 8
  store i32 1, ptr %8, align 4
  br label %30

22:                                               ; preds = %2
  %23 = load i64, ptr %4, align 8, !tbaa !22
  %24 = call i64 @rb_thread_local_storage(i64 noundef %23)
  store i64 %24, ptr %6, align 8, !tbaa !22
  %25 = load i64, ptr %6, align 8, !tbaa !22
  %26 = load i64, ptr %7, align 8, !tbaa !22
  %27 = call i64 @rb_hash_lookup(i64 noundef %25, i64 noundef %26)
  %28 = icmp ne i64 %27, 4
  %29 = select i1 %28, i64 20, i64 0
  store i64 %29, ptr %3, align 8
  store i32 1, ptr %8, align 4
  br label %30

30:                                               ; preds = %22, %21
  call void @llvm.lifetime.end.p0(i64 8, ptr %7) #16
  call void @llvm.lifetime.end.p0(i64 8, ptr %6) #16
  %31 = load i64, ptr %3, align 8
  ret i64 %31
}