; Function Attrs: nounwind sspstrong uwtable
define internal range(i64 0, 21) i64 @rb_thread_variable_p(i64 noundef %0, i64 noundef %1) #0 {
  %3 = tail call i64 @rb_to_symbol(i64 noundef %1) #17
  %4 = inttoptr i64 %0 to ptr
  %5 = load i64, ptr %4, align 8, !tbaa !42
  %6 = and i64 %5, 33554432
  %.not = icmp eq i64 %6, 0
  br i1 %.not, label %11, label %7, !prof !45

7:                                                ; preds = %2
  %8 = tail call fastcc i64 @rb_thread_local_storage(i64 noundef %0)
  %9 = tail call i64 @rb_hash_lookup(i64 noundef %8, i64 noundef %3) #17
  %.not6 = icmp eq i64 %9, 4
  %10 = select i1 %.not6, i64 0, i64 20
  br label %11

11:                                               ; preds = %2, %7
  %.0 = phi i64 [ %10, %7 ], [ 0, %2 ]
  ret i64 %.0
}